target datalayout = "e-m:e-p270:32:32-p271:32:32-p272:64:64-i64:64-i128:128-f80:128-n8:16:32:64-S128"
target triple = "x86_64-pc-linux-gnu"

%"class.google::protobuf::internal::UnknownFieldSetFieldSkipper" = type { %"class.google::protobuf::internal::FieldSkipper", ptr }
%"class.google::protobuf::internal::FieldSkipper" = type { ptr }
%"class.google::protobuf::io::CodedInputStream" = type { ptr, ptr, ptr, i32, i32, i32, i8, i8, i32, i32, i32, i32, i32, ptr, ptr }
%"class.google::protobuf::internal::DescriptorPoolExtensionFinder" = type { %"class.google::protobuf::internal::ExtensionFinder", ptr, ptr, ptr }
%"class.google::protobuf::internal::ExtensionFinder" = type { ptr }
%"class.google::protobuf::internal::GeneratedExtensionFinder" = type { %"class.google::protobuf::internal::ExtensionFinder", ptr }
%"struct.google::protobuf::Metadata" = type { ptr, ptr }

@_ZTVN6google8protobuf8internal27UnknownFieldSetFieldSkipperE = external unnamed_addr constant { [7 x ptr] }, align 8
@_ZTVN6google8protobuf8internal12FieldSkipperE = external unnamed_addr constant { [7 x ptr] }, align 8
@_ZTVN6google8protobuf8internal24GeneratedExtensionFinderE = external unnamed_addr constant { [5 x ptr] }, align 8
@_ZTVN6google8protobuf8internal15ExtensionFinderE = external unnamed_addr constant { [5 x ptr] }, align 8

; Function Attrs: inlinehint mustprogress nounwind uwtable
define linkonce_odr hidden void @_ZN6google8protobuf8internal15ExtensionFinderC2Ev(ptr noundef nonnull align 8 dereferenceable(8) %0) unnamed_addr #7 comdat align 2 {
  %2 = alloca ptr, align 8
  store ptr %0, ptr %2, align 8, !tbaa !148
  %3 = load ptr, ptr %2, align 8
  store ptr getelementptr inbounds inrange(-16, 24) ({ [5 x ptr] }, ptr @_ZTVN6google8protobuf8internal15ExtensionFinderE, i32 0, i32 0, i32 2), ptr %3, align 8, !tbaa !46
  ret void
}

; Function Attrs: mustprogress nounwind uwtable
define linkonce_odr hidden void @_ZN6google8protobuf8internal12FieldSkipperC2Ev(ptr noundef nonnull align 8 dereferenceable(8) %0) unnamed_addr #9 comdat align 2 {
  %2 = alloca ptr, align 8
  store ptr %0, ptr %2, align 8, !tbaa !151
  %3 = load ptr, ptr %2, align 8
  store ptr getelementptr inbounds inrange(-16, 40) ({ [7 x ptr] }, ptr @_ZTVN6google8protobuf8internal12FieldSkipperE, i32 0, i32 0, i32 2), ptr %3, align 8, !tbaa !46
  ret void
}

; Function Attrs: mustprogress nounwind uwtable
define linkonce_odr hidden void @_ZN6google8protobuf8internal12FieldSkipperD2Ev(ptr noundef nonnull align 8 dereferenceable(8) %0) unnamed_addr #9 comdat align 2 {
  %2 = alloca ptr, align 8
  store ptr %0, ptr %2, align 8, !tbaa !151
  ret void
}

; Function Attrs: mustprogress nounwind uwtable
define linkonce_odr hidden void @_ZN6google8protobuf8internal29DescriptorPoolExtensionFinderC2EPKNS0_14DescriptorPoolEPNS0_14MessageFactoryEPKNS0_10DescriptorE(ptr noundef nonnull align 8 dereferenceable(32) %0, ptr noundef %1, ptr noundef %2, ptr noundef %3) unnamed_addr #9 comdat align 2 {
  %5 = alloca ptr, align 8
  %6 = alloca ptr, align 8
  %7 = alloca ptr, align 8
  %8 = alloca ptr, align 8
  store ptr %0, ptr %5, align 8, !tbaa !96
  store ptr %1, ptr %6, align 8, !tbaa !33
  store ptr %2, ptr %7, align 8, !tbaa !43
  store ptr %3, ptr %8, align 8, !tbaa !31
  %9 = load ptr, ptr %5, align 8
  call void @_ZN6google8protobuf8internal15ExtensionFinderC2Ev(ptr noundef nonnull align 8 dereferenceable(8) %9) #3
  store ptr getelementptr inbounds inrange(-16, 24) ({ [5 x ptr] }, ptr @_ZTVN6google8protobuf8internal29DescriptorPoolExtensionFinderE, i32 0, i32 0, i32 2), ptr %9, align 8, !tbaa !46
  %10 = getelementptr inbounds nuw %"class.google::protobuf::internal::DescriptorPoolExtensionFinder", ptr %9, i32 0, i32 1
  %11 = load ptr, ptr %6, align 8, !tbaa !33
  store ptr %11, ptr %10, align 8, !tbaa !100
  %12 = getelementptr inbounds nuw %"class.google::protobuf::internal::DescriptorPoolExtensionFinder", ptr %9, i32 0, i32 2
  %13 = load ptr, ptr %7, align 8, !tbaa !43
  store ptr %13, ptr %12, align 8, !tbaa !109
  %14 = getelementptr inbounds nuw %"class.google::protobuf::internal::DescriptorPoolExtensionFinder", ptr %9, i32 0, i32 3
  %15 = load ptr, ptr %8, align 8, !tbaa !31
  store ptr %15, ptr %14, align 8, !tbaa !103
  ret void
}

; Function Attrs: mustprogress uwtable
define linkonce_odr hidden noundef ptr @_ZNK6google8protobuf7Message13GetDescriptorEv(ptr noundef nonnull align 8 dereferenceable(16) %0) #4 comdat align 2 {
  %2 = alloca ptr, align 8
  %3 = alloca %"struct.google::protobuf::Metadata", align 8
  store ptr %0, ptr %2, align 8, !tbaa !116
  %4 = load ptr, ptr %2, align 8
  call void @llvm.lifetime.start.p0(i64 16, ptr %3) #3
  %5 = load ptr, ptr %4, align 8, !tbaa !46
  %6 = getelementptr inbounds ptr, ptr %5, i64 17
  %7 = load ptr, ptr %6, align 8
  %8 = call { ptr, ptr } %7(ptr noundef nonnull align 8 dereferenceable(16) %4)
  %9 = getelementptr inbounds nuw { ptr, ptr }, ptr %3, i32 0, i32 0
  %10 = extractvalue { ptr, ptr } %8, 0
  store ptr %10, ptr %9, align 8
  %11 = getelementptr inbounds nuw { ptr, ptr }, ptr %3, i32 0, i32 1
  %12 = extractvalue { ptr, ptr } %8, 1
  store ptr %12, ptr %11, align 8
  %13 = getelementptr inbounds nuw %"struct.google::protobuf::Metadata", ptr %3, i32 0, i32 0
  %14 = load ptr, ptr %13, align 8, !tbaa !145
  call void @llvm.lifetime.end.p0(i64 16, ptr %3) #3
  ret ptr %14
}

; Function Attrs: inlinehint mustprogress nounwind uwtable
define linkonce_odr hidden noundef ptr @_ZN6google8protobuf2io16CodedInputStream19GetExtensionFactoryEv(ptr noundef nonnull align 8 dereferenceable(80) %0) #7 comdat align 2 {
  %2 = alloca ptr, align 8
  store ptr %0, ptr %2, align 8, !tbaa !8
  %3 = load ptr, ptr %2, align 8
  %4 = getelementptr inbounds nuw %"class.google::protobuf::io::CodedInputStream", ptr %3, i32 0, i32 14
  %5 = load ptr, ptr %4, align 8, !tbaa !144
  ret ptr %5
}

; Function Attrs: mustprogress nounwind uwtable
define linkonce_odr hidden void @_ZN6google8protobuf8internal24GeneratedExtensionFinderC2EPKNS0_11MessageLiteE(ptr noundef nonnull align 8 dereferenceable(16) %0, ptr noundef %1) unnamed_addr #9 comdat align 2 {
  %3 = alloca ptr, align 8
  %4 = alloca ptr, align 8
  store ptr %0, ptr %3, align 8, !tbaa !140
  store ptr %1, ptr %4, align 8, !tbaa !64
  %5 = load ptr, ptr %3, align 8
  call void @_ZN6google8protobuf8internal15ExtensionFinderC2Ev(ptr noundef nonnull align 8 dereferenceable(8) %5) #3
  store ptr getelementptr inbounds inrange(-16, 24) ({ [5 x ptr] }, ptr @_ZTVN6google8protobuf8internal24GeneratedExtensionFinderE, i32 0, i32 0, i32 2), ptr %5, align 8, !tbaa !46
  %6 = getelementptr inbounds nuw %"class.google::protobuf::internal::GeneratedExtensionFinder", ptr %5, i32 0, i32 1
  %7 = load ptr, ptr %4, align 8, !tbaa !64
  store ptr %7, ptr %6, align 8, !tbaa !142
  ret void
}

; Function Attrs: inlinehint mustprogress nounwind uwtable
define linkonce_odr hidden noundef ptr @_ZN6google8protobuf2io16CodedInputStream16GetExtensionPoolEv(ptr noundef nonnull align 8 dereferenceable(80) %0) #7 comdat align 2 {
  %2 = alloca ptr, align 8
  store ptr %0, ptr %2, align 8, !tbaa !8
  %3 = load ptr, ptr %2, align 8
  %4 = getelementptr inbounds nuw %"class.google::protobuf::io::CodedInputStream", ptr %3, i32 0, i32 13
  %5 = load ptr, ptr %4, align 8, !tbaa !139
  ret ptr %5
}

; Function Attrs: mustprogress uwtable
define linkonce_odr hidden void @_ZN6google8protobuf8internal27UnknownFieldSetFieldSkipperC2EPNS0_15UnknownFieldSetE(ptr noundef nonnull align 8 dereferenceable(16) %0, ptr noundef %1) unnamed_addr #4 comdat align 2 {
  %3 = alloca ptr, align 8
  %4 = alloca ptr, align 8
  store ptr %0, ptr %3, align 8, !tbaa !137
  store ptr %1, ptr %4, align 8, !tbaa !136
  %5 = load ptr, ptr %3, align 8
  call void @_ZN6google8protobuf8internal12FieldSkipperC2Ev(ptr noundef nonnull align 8 dereferenceable(8) %5)
  store ptr getelementptr inbounds inrange(-16, 40) ({ [7 x ptr] }, ptr @_ZTVN6google8protobuf8internal27UnknownFieldSetFieldSkipperE, i32 0, i32 0, i32 2), ptr %5, align 8, !tbaa !46
  %6 = getelementptr inbounds nuw %"class.google::protobuf::internal::UnknownFieldSetFieldSkipper", ptr %5, i32 0, i32 1
  %7 = load ptr, ptr %4, align 8, !tbaa !136
  store ptr %7, ptr %6, align 8, !tbaa !12
  ret void
}

; Function Attrs: mustprogress uwtable
define hidden noundef zeroext i1 @_ZN6google8protobuf8internal12ExtensionSet10ParseFieldEjPNS0_2io16CodedInputStreamEPKNS0_7MessageEPNS0_15UnknownFieldSetE(ptr noundef nonnull align 8 dereferenceable(24) %0, i32 noundef %1, ptr noundef %2, ptr noundef %3, ptr noundef %4) #4 align 2 personality ptr @__gxx_personality_v0 {
  %6 = alloca i1, align 1
  %7 = alloca ptr, align 8
  %8 = alloca i32, align 4
  %9 = alloca ptr, align 8
  %10 = alloca ptr, align 8
  %11 = alloca ptr, align 8
  %12 = alloca %"class.google::protobuf::internal::UnknownFieldSetFieldSkipper", align 8
  %13 = alloca ptr, align 8
  %14 = alloca i32, align 4
  %15 = alloca %"class.google::protobuf::internal::GeneratedExtensionFinder", align 8
  %16 = alloca i32, align 4
  %17 = alloca %"class.google::protobuf::internal::DescriptorPoolExtensionFinder", align 8
  store ptr %0, ptr %7, align 8, !tbaa !29
  store i32 %1, ptr %8, align 4, !tbaa !10
  store ptr %2, ptr %9, align 8, !tbaa !8
  store ptr %3, ptr %10, align 8, !tbaa !116
  store ptr %4, ptr %11, align 8, !tbaa !136
  %18 = load ptr, ptr %7, align 8
  call void @llvm.lifetime.start.p0(i64 16, ptr %12) #3
  %19 = load ptr, ptr %11, align 8, !tbaa !136
  call void @_ZN6google8protobuf8internal27UnknownFieldSetFieldSkipperC2EPNS0_15UnknownFieldSetE(ptr noundef nonnull align 8 dereferenceable(16) %12, ptr noundef %19)
  %20 = load ptr, ptr %9, align 8, !tbaa !8
  %21 = invoke noundef ptr @_ZN6google8protobuf2io16CodedInputStream16GetExtensionPoolEv(ptr noundef nonnull align 8 dereferenceable(80) %20)
          to label %22 unwind label %31

22:                                               ; preds = %5
  %23 = icmp eq ptr %21, null
  br i1 %23, label %24, label %44

24:                                               ; preds = %22
  call void @llvm.lifetime.start.p0(i64 16, ptr %15) #3
  %25 = load ptr, ptr %10, align 8, !tbaa !116
  invoke void @_ZN6google8protobuf8internal24GeneratedExtensionFinderC2EPKNS0_11MessageLiteE(ptr noundef nonnull align 8 dereferenceable(16) %15, ptr noundef %25)
          to label %26 unwind label %35

26:                                               ; preds = %24
  %27 = load i32, ptr %8, align 4, !tbaa !10
  %28 = load ptr, ptr %9, align 8, !tbaa !8
  %29 = invoke noundef zeroext i1 @_ZN6google8protobuf8internal12ExtensionSet10ParseFieldEjPNS0_2io16CodedInputStreamEPNS1_15ExtensionFinderEPNS1_12FieldSkipperE(ptr noundef nonnull align 8 dereferenceable(24) %18, i32 noundef %27, ptr noundef %28, ptr noundef %15, ptr noundef %12)
          to label %30 unwind label %39

30:                                               ; preds = %26
  store i1 %29, ptr %6, align 1
  store i32 1, ptr %16, align 4
  call void @_ZN6google8protobuf8internal15ExtensionFinderD2Ev(ptr noundef nonnull align 8 dereferenceable(16) %15) #3
  call void @llvm.lifetime.end.p0(i64 16, ptr %15) #3
  br label %68

31:                                               ; preds = %5
  %32 = landingpad { ptr, i32 }
          cleanup
  %33 = extractvalue { ptr, i32 } %32, 0
  store ptr %33, ptr %13, align 8
  %34 = extractvalue { ptr, i32 } %32, 1
  store i32 %34, ptr %14, align 4
  br label %70

35:                                               ; preds = %24
  %36 = landingpad { ptr, i32 }
          cleanup
  %37 = extractvalue { ptr, i32 } %36, 0
  store ptr %37, ptr %13, align 8
  %38 = extractvalue { ptr, i32 } %36, 1
  store i32 %38, ptr %14, align 4
  br label %43

39:                                               ; preds = %26
  %40 = landingpad { ptr, i32 }
          cleanup
  %41 = extractvalue { ptr, i32 } %40, 0
  store ptr %41, ptr %13, align 8
  %42 = extractvalue { ptr, i32 } %40, 1
  store i32 %42, ptr %14, align 4
  call void @_ZN6google8protobuf8internal15ExtensionFinderD2Ev(ptr noundef nonnull align 8 dereferenceable(16) %15) #3
  br label %43

43:                                               ; preds = %39, %35
  call void @llvm.lifetime.end.p0(i64 16, ptr %15) #3
  br label %70

44:                                               ; preds = %22
  call void @llvm.lifetime.start.p0(i64 32, ptr %17) #3
  %45 = load ptr, ptr %9, align 8, !tbaa !8
  %46 = invoke noundef ptr @_ZN6google8protobuf2io16CodedInputStream16GetExtensionPoolEv(ptr noundef nonnull align 8 dereferenceable(80) %45)
          to label %47 unwind label %59

47:                                               ; preds = %44
  %48 = load ptr, ptr %9, align 8, !tbaa !8
  %49 = invoke noundef ptr @_ZN6google8protobuf2io16CodedInputStream19GetExtensionFactoryEv(ptr noundef nonnull align 8 dereferenceable(80) %48)
          to label %50 unwind label %59

50:                                               ; preds = %47
  %51 = load ptr, ptr %10, align 8, !tbaa !116
  %52 = invoke noundef ptr @_ZNK6google8protobuf7Message13GetDescriptorEv(ptr noundef nonnull align 8 dereferenceable(16) %51)
          to label %53 unwind label %59

53:                                               ; preds = %50
  invoke void @_ZN6google8protobuf8internal29DescriptorPoolExtensionFinderC2EPKNS0_14DescriptorPoolEPNS0_14MessageFactoryEPKNS0_10DescriptorE(ptr noundef nonnull align 8 dereferenceable(32) %17, ptr noundef %46, ptr noundef %49, ptr noundef %52)
          to label %54 unwind label %59

54:                                               ; preds = %53
  %55 = load i32, ptr %8, align 4, !tbaa !10
  %56 = load ptr, ptr %9, align 8, !tbaa !8
  %57 = invoke noundef zeroext i1 @_ZN6google8protobuf8internal12ExtensionSet10ParseFieldEjPNS0_2io16CodedInputStreamEPNS1_15ExtensionFinderEPNS1_12FieldSkipperE(ptr noundef nonnull align 8 dereferenceable(24) %18, i32 noundef %55, ptr noundef %56, ptr noundef %17, ptr noundef %12)
          to label %58 unwind label %63

58:                                               ; preds = %54
  store i1 %57, ptr %6, align 1
  store i32 1, ptr %16, align 4
  call void @_ZN6google8protobuf8internal15ExtensionFinderD2Ev(ptr noundef nonnull align 8 dereferenceable(32) %17) #3
  call void @llvm.lifetime.end.p0(i64 32, ptr %17) #3
  br label %68

59:                                               ; preds = %53, %50, %47, %44
  %60 = landingpad { ptr, i32 }
          cleanup
  %61 = extractvalue { ptr, i32 } %60, 0
  store ptr %61, ptr %13, align 8
  %62 = extractvalue { ptr, i32 } %60, 1
  store i32 %62, ptr %14, align 4
  br label %67

63:                                               ; preds = %54
  %64 = landingpad { ptr, i32 }
          cleanup
  %65 = extractvalue { ptr, i32 } %64, 0
  store ptr %65, ptr %13, align 8
  %66 = extractvalue { ptr, i32 } %64, 1
  store i32 %66, ptr %14, align 4
  call void @_ZN6google8protobuf8internal15ExtensionFinderD2Ev(ptr noundef nonnull align 8 dereferenceable(32) %17) #3
  br label %67

67:                                               ; preds = %63, %59
  call void @llvm.lifetime.end.p0(i64 32, ptr %17) #3
  br label %70

68:                                               ; preds = %58, %30
  call void @_ZN6google8protobuf8internal12FieldSkipperD2Ev(ptr noundef nonnull align 8 dereferenceable(16) %12) #3
  call void @llvm.lifetime.end.p0(i64 16, ptr %12) #3
  %69 = load i1, ptr %6, align 1
  ret i1 %69

70:                                               ; preds = %67, %43, %31
  call void @_ZN6google8protobuf8internal12FieldSkipperD2Ev(ptr noundef nonnull align 8 dereferenceable(16) %12) #3
  call void @llvm.lifetime.end.p0(i64 16, ptr %12) #3
  br label %71

71:                                               ; preds = %70
  %72 = load ptr, ptr %13, align 8
  %73 = load i32, ptr %14, align 4
  %74 = insertvalue { ptr, i32 } poison, ptr %72, 0
  %75 = insertvalue { ptr, i32 } %74, i32 %73, 1
  resume { ptr, i32 } %75
}