; Function Attrs: mustprogress uwtable
define hidden noundef zeroext i1 @_ZN6google8protobuf8internal12ExtensionSet10ParseFieldEjPNS0_2io16CodedInputStreamEPKNS0_7MessageEPNS0_15UnknownFieldSetE(ptr noundef nonnull align 8 dereferenceable(24) %0, i32 noundef %1, ptr noundef %2, ptr noundef %3, ptr noundef %4) local_unnamed_addr #3 align 2 personality ptr @__gxx_personality_v0 {
  %6 = alloca %"class.google::protobuf::internal::UnknownFieldSetFieldSkipper", align 8
  %7 = alloca %"class.google::protobuf::internal::GeneratedExtensionFinder", align 8
  %8 = alloca %"class.google::protobuf::internal::DescriptorPoolExtensionFinder", align 8
  call void @llvm.lifetime.start.p0(i64 16, ptr nonnull %6) #21
  store ptr getelementptr inbounds nuw inrange(-16, 40) (i8, ptr @_ZTVN6google8protobuf8internal27UnknownFieldSetFieldSkipperE, i64 16), ptr %6, align 8, !tbaa !52
  %9 = getelementptr inbounds nuw i8, ptr %6, i64 8
  store ptr %4, ptr %9, align 8, !tbaa !17
  %10 = getelementptr inbounds nuw i8, ptr %2, i64 64
  %11 = load ptr, ptr %10, align 8, !tbaa !146
  %12 = icmp eq ptr %11, null
  br i1 %12, label %13, label %19

13:                                               ; preds = %5
  call void @llvm.lifetime.start.p0(i64 16, ptr nonnull %7) #21
  store ptr getelementptr inbounds nuw inrange(-16, 24) (i8, ptr @_ZTVN6google8protobuf8internal24GeneratedExtensionFinderE, i64 16), ptr %7, align 8, !tbaa !52
  %14 = getelementptr inbounds nuw i8, ptr %7, i64 8
  store ptr %3, ptr %14, align 8, !tbaa !116
  %15 = invoke noundef zeroext i1 @_ZN6google8protobuf8internal12ExtensionSet10ParseFieldEjPNS0_2io16CodedInputStreamEPNS1_15ExtensionFinderEPNS1_12FieldSkipperE(ptr noundef nonnull align 8 dereferenceable(24) %0, i32 noundef %1, ptr noundef nonnull %2, ptr noundef nonnull %7, ptr noundef nonnull %6)
          to label %16 unwind label %17

16:                                               ; preds = %13
  call void @_ZN6google8protobuf8internal15ExtensionFinderD2Ev(ptr noundef nonnull align 8 dereferenceable(16) %7) #21
  call void @llvm.lifetime.end.p0(i64 16, ptr nonnull %7) #21
  br label %38

17:                                               ; preds = %13
  %18 = landingpad { ptr, i32 }
          cleanup
  call void @_ZN6google8protobuf8internal15ExtensionFinderD2Ev(ptr noundef nonnull align 8 dereferenceable(16) %7) #21
  call void @llvm.lifetime.end.p0(i64 16, ptr nonnull %7) #21
  br label %39

19:                                               ; preds = %5
  call void @llvm.lifetime.start.p0(i64 32, ptr nonnull %8) #21
  %20 = getelementptr inbounds nuw i8, ptr %2, i64 72
  %21 = load ptr, ptr %20, align 8, !tbaa !147
  %22 = load ptr, ptr %3, align 8, !tbaa !52
  %23 = getelementptr inbounds nuw i8, ptr %22, i64 136
  %24 = load ptr, ptr %23, align 8
  %25 = invoke { ptr, ptr } %24(ptr noundef nonnull align 8 dereferenceable(16) %3)
          to label %26 unwind label %33

26:                                               ; preds = %19
  %27 = extractvalue { ptr, ptr } %25, 0
  store ptr getelementptr inbounds nuw inrange(-16, 24) (i8, ptr @_ZTVN6google8protobuf8internal29DescriptorPoolExtensionFinderE, i64 16), ptr %8, align 8, !tbaa !52
  %28 = getelementptr inbounds nuw i8, ptr %8, i64 8
  store ptr %11, ptr %28, align 8, !tbaa !87
  %29 = getelementptr inbounds nuw i8, ptr %8, i64 16
  store ptr %21, ptr %29, align 8, !tbaa !112
  %30 = getelementptr inbounds nuw i8, ptr %8, i64 24
  store ptr %27, ptr %30, align 8, !tbaa !90
  %31 = invoke noundef zeroext i1 @_ZN6google8protobuf8internal12ExtensionSet10ParseFieldEjPNS0_2io16CodedInputStreamEPNS1_15ExtensionFinderEPNS1_12FieldSkipperE(ptr noundef nonnull align 8 dereferenceable(24) %0, i32 noundef %1, ptr noundef nonnull %2, ptr noundef nonnull %8, ptr noundef nonnull %6)
          to label %32 unwind label %35

32:                                               ; preds = %26
  call void @_ZN6google8protobuf8internal15ExtensionFinderD2Ev(ptr noundef nonnull align 8 dereferenceable(32) %8) #21
  call void @llvm.lifetime.end.p0(i64 32, ptr nonnull %8) #21
  br label %38

33:                                               ; preds = %19
  %34 = landingpad { ptr, i32 }
          cleanup
  br label %37

35:                                               ; preds = %26
  %36 = landingpad { ptr, i32 }
          cleanup
  call void @_ZN6google8protobuf8internal15ExtensionFinderD2Ev(ptr noundef nonnull align 8 dereferenceable(32) %8) #21
  br label %37

37:                                               ; preds = %35, %33
  %.pn = phi { ptr, i32 } [ %36, %35 ], [ %34, %33 ]
  call void @llvm.lifetime.end.p0(i64 32, ptr nonnull %8) #21
  br label %39

38:                                               ; preds = %32, %16
  %.015 = phi i1 [ %15, %16 ], [ %31, %32 ]
  call void @llvm.lifetime.end.p0(i64 16, ptr nonnull %6) #21
  ret i1 %.015

39:                                               ; preds = %37, %17
  %.pn17 = phi { ptr, i32 } [ %18, %17 ], [ %.pn, %37 ]
  call void @llvm.lifetime.end.p0(i64 16, ptr nonnull %6) #21
  resume { ptr, i32 } %.pn17
}